target datalayout = "e-m:e-p270:32:32-p271:32:32-p272:64:64-i64:64-i128:128-f80:128-n8:16:32:64-S128"
target triple = "x86_64-pc-linux-gnu"

%"struct.pxrInternal_v0_24__pxrReserved__::TsTest_SampleTimes::SampleTime" = type <{ double, i8, [7 x i8] }>

; Function Attrs: mustprogress nounwind uwtable
define noundef zeroext i1 @_ZNK32pxrInternal_v0_24__pxrReserved__18TsTest_SampleTimes10SampleTimeeqERKS1_(ptr noundef nonnull align 8 dereferenceable(9) %0, ptr noundef nonnull align 8 dereferenceable(9) %1) #0 align 2 {
  %3 = alloca ptr, align 8
  %4 = alloca ptr, align 8
  store ptr %0, ptr %3, align 8
  store ptr %1, ptr %4, align 8
  %5 = load ptr, ptr %3, align 8
  %6 = getelementptr inbounds nuw %"struct.pxrInternal_v0_24__pxrReserved__::TsTest_SampleTimes::SampleTime", ptr %5, i32 0, i32 0
  %7 = load double, ptr %6, align 8
  %8 = load ptr, ptr %4, align 8
  %9 = getelementptr inbounds nuw %"struct.pxrInternal_v0_24__pxrReserved__::TsTest_SampleTimes::SampleTime", ptr %8, i32 0, i32 0
  %10 = load double, ptr %9, align 8
  %11 = fcmp oeq double %7, %10
  br i1 %11, label %12, label %23

12:                                               ; preds = %2
  %13 = getelementptr inbounds nuw %"struct.pxrInternal_v0_24__pxrReserved__::TsTest_SampleTimes::SampleTime", ptr %5, i32 0, i32 1
  %14 = load i8, ptr %13, align 8
  %15 = trunc i8 %14 to i1
  %16 = zext i1 %15 to i32
  %17 = load ptr, ptr %4, align 8
  %18 = getelementptr inbounds nuw %"struct.pxrInternal_v0_24__pxrReserved__::TsTest_SampleTimes::SampleTime", ptr %17, i32 0, i32 1
  %19 = load i8, ptr %18, align 8
  %20 = trunc i8 %19 to i1
  %21 = zext i1 %20 to i32
  %22 = icmp eq i32 %16, %21
  br label %23

23:                                               ; preds = %12, %2
  %24 = phi i1 [ false, %2 ], [ %22, %12 ]
  ret i1 %24
}

; Function Attrs: mustprogress nounwind uwtable
define noundef zeroext i1 @_ZNK32pxrInternal_v0_24__pxrReserved__18TsTest_SampleTimes10SampleTimeneERKS1_(ptr noundef nonnull align 8 dereferenceable(9) %0, ptr noundef nonnull align 8 dereferenceable(9) %1) #0 align 2 {
  %3 = alloca ptr, align 8
  %4 = alloca ptr, align 8
  store ptr %0, ptr %3, align 8
  store ptr %1, ptr %4, align 8
  %5 = load ptr, ptr %3, align 8
  %6 = load ptr, ptr %4, align 8
  %7 = call noundef zeroext i1 @_ZNK32pxrInternal_v0_24__pxrReserved__18TsTest_SampleTimes10SampleTimeeqERKS1_(ptr noundef nonnull align 8 dereferenceable(9) %5, ptr noundef nonnull align 8 dereferenceable(9) %6)
  %8 = xor i1 %7, true
  ret i1 %8
}